(iGUI_classes.class_configure_project
save_project_configuration
p0
(dp1
S'DUG_segy_path'
p2
S'/d/home/asima0150/abhi_deliverable_qc_test'
p3
sS'use_env'
p4
S'Asima'
p5
sS'db_user'
p6
S'fgeo'
p7
sS'DUG_pword'
p8
S'polarcus'
p9
sS'host_IP'
p10
S'127.0.0.1'
p11
sS'db_port'
p12
S'1111'
p13
sS'DUG_user'
p14
S'asima0150'
p15
sS'db_name'
p16
S'abhi_038916'
p17
sS'host_pword'
p18
S'none'
p19
sS'db_pword'
p20
S'Polarcus123'
p21
sS'DUG_IP'
p22
S'10.105.20.150'
p23
sS'host_user'
p24
S'DXB-1118'
p25
sb.