(iGUI_classes.class_configure_project
save_project_configuration
p0
(dp1
S'DUG_segy_path'
p2
S'/adira/contracts/adi040317_shell_Brazil_4D'
p3
sS'use_env'
p4
S'Adira'
p5
sS'db_user'
p6
S'fgeo'
p7
sS'DUG_pword'
p8
S'polarcus'
p9
sS'host_IP'
p10
S'10.11.1.39'
p11
sS'db_port'
p12
S'5432'
p13
sS'DUG_user'
p14
S'adira0152'
p15
sS'db_name'
p16
S'20171101_proj_adi040317'
p17
sS'host_pword'
p18
S'rdV9BPk9WS'
p19
sS'db_pword'
p20
S'Polarcus123'
p21
sS'DUG_IP'
p22
S'10.108.20.152'
p23
sS'host_user'
p24
S'irdb'
p25
sb.